; Function Attrs: nounwind uwtable
define dso_local void @jw_object_double(ptr noundef %0, ptr noundef %1, i32 noundef %2, double noundef %3) local_unnamed_addr #3 {
  %5 = alloca %struct.strbuf, align 8
  tail call fastcc void @object_common(ptr noundef %0, ptr noundef %1)
  %6 = icmp slt i32 %2, 0
  br i1 %6, label %7, label %8

7:                                                ; preds = %4
  tail call void (ptr, ptr, ...) @strbuf_addf(ptr noundef %0, ptr noundef nonnull @.str.16, double noundef %3) #8
  br label %fmt_double.exit

8:                                                ; preds = %4
  call void @llvm.lifetime.start.p0(i64 24, ptr nonnull %5) #8
  call void @llvm.memcpy.p0.p0.i64(ptr noundef nonnull align 8 dereferenceable(24) %5, ptr noundef nonnull align 8 dereferenceable(24) @__const.append_sub_jw.sb.19, i64 24, i1 false)
  call void (ptr, ptr, ...) @strbuf_addf(ptr noundef nonnull %5, ptr noundef nonnull @.str.17, i32 noundef %2) #8
  %9 = getelementptr inbounds nuw i8, ptr %5, i64 16
  %10 = load ptr, ptr %9, align 8, !tbaa !12
  call void (ptr, ptr, ...) @strbuf_addf(ptr noundef %0, ptr noundef %10, double noundef %3) #8
  call void @strbuf_release(ptr noundef nonnull %5) #8
  call void @llvm.lifetime.end.p0(i64 24, ptr nonnull %5) #8
  br label %fmt_double.exit

fmt_double.exit:                                  ; preds = %7, %8
  ret void
}